target datalayout = "e-m:e-p270:32:32-p271:32:32-p272:64:64-i64:64-i128:128-f80:128-n8:16:32:64-S128"
target triple = "x86_64-pc-linux-gnu"

%class.RegMask = type { %union.anon, i32, i32 }
%union.anon = type { [11 x i64] }

; Function Attrs: mustprogress nounwind uwtable
define linkonce_odr hidden noundef i32 @_Z23count_trailing_zeros_64m(i64 noundef %0) #1 comdat {
  %2 = alloca i64, align 8
  store i64 %0, ptr %2, align 8
  %3 = load i64, ptr %2, align 8
  %4 = call i64 @llvm.cttz.i64(i64 %3, i1 true)
  %5 = trunc i64 %4 to i32
  ret i32 %5
}

; Function Attrs: mustprogress nounwind uwtable
define linkonce_odr hidden noundef i32 @_Z20count_trailing_zerosImTnNSt9enable_ifIXcvbsr3std11is_integralIT_EE5valueEiE4typeELi0ETnNS0_IXcvblestS1_Lm8EEiE4typeELi0EEjS1_(i64 noundef %0) #1 comdat {
  %2 = alloca i64, align 8
  store i64 %0, ptr %2, align 8
  %3 = load i64, ptr %2, align 8
  %4 = call noundef i32 @_Z23count_trailing_zeros_64m(i64 noundef %3)
  ret i32 %4
}

; Function Attrs: mustprogress nounwind uwtable
define internal noundef i32 @_ZL15find_lowest_bitm(i64 noundef %0) #1 {
  %2 = alloca i64, align 8
  store i64 %0, ptr %2, align 8
  %3 = load i64, ptr %2, align 8
  %4 = call noundef i32 @_Z20count_trailing_zerosImTnNSt9enable_ifIXcvbsr3std11is_integralIT_EE5valueEiE4typeELi0ETnNS0_IXcvblestS1_Lm8EEiE4typeELi0EEjS1_(i64 noundef %3)
  ret i32 %4
}

; Function Attrs: mustprogress nounwind uwtable
define linkonce_odr hidden noundef zeroext i1 @_ZNK7RegMask11is_AllStackEv(ptr noundef nonnull align 8 dereferenceable(96) %0) #1 comdat align 2 {
  %2 = alloca ptr, align 8
  store ptr %0, ptr %2, align 8
  %3 = load ptr, ptr %2, align 8
  %4 = getelementptr inbounds %class.RegMask, ptr %3, i32 0, i32 0
  %5 = getelementptr inbounds [11 x i64], ptr %4, i64 0, i64 10
  %6 = load i64, ptr %5, align 8
  %7 = and i64 %6, -9223372036854775808
  %8 = icmp ne i64 %7, 0
  ret i1 %8
}

; Function Attrs: mustprogress nounwind uwtable
define hidden noundef zeroext i1 @_ZNK7RegMask13is_bound_pairEv(ptr noundef nonnull align 8 dereferenceable(96) %0) #1 align 2 {
  %2 = alloca i1, align 1
  %3 = alloca ptr, align 8
  %4 = alloca i32, align 4
  %5 = alloca i32, align 4
  %6 = alloca i64, align 8
  store ptr %0, ptr %3, align 8
  %7 = load ptr, ptr %3, align 8
  %8 = call noundef zeroext i1 @_ZNK7RegMask11is_AllStackEv(ptr noundef nonnull align 8 dereferenceable(96) %7)
  br i1 %8, label %9, label %10

9:                                                ; preds = %1
  store i1 false, ptr %2, align 1
  br label %92

10:                                               ; preds = %1
  %11 = getelementptr inbounds %class.RegMask, ptr %7, i32 0, i32 1
  %12 = load i32, ptr %11, align 8
  store i32 %12, ptr %4, align 4
  br label %13

13:                                               ; preds = %88, %10
  %14 = load i32, ptr %4, align 4
  %15 = getelementptr inbounds %class.RegMask, ptr %7, i32 0, i32 2
  %16 = load i32, ptr %15, align 4
  %17 = icmp ule i32 %14, %16
  br i1 %17, label %18, label %91

18:                                               ; preds = %13
  %19 = getelementptr inbounds %class.RegMask, ptr %7, i32 0, i32 0
  %20 = load i32, ptr %4, align 4
  %21 = zext i32 %20 to i64
  %22 = getelementptr inbounds [11 x i64], ptr %19, i64 0, i64 %21
  %23 = load i64, ptr %22, align 8
  %24 = icmp ne i64 %23, 0
  br i1 %24, label %25, label %87

25:                                               ; preds = %18
  %26 = getelementptr inbounds %class.RegMask, ptr %7, i32 0, i32 0
  %27 = load i32, ptr %4, align 4
  %28 = zext i32 %27 to i64
  %29 = getelementptr inbounds [11 x i64], ptr %26, i64 0, i64 %28
  %30 = load i64, ptr %29, align 8
  %31 = call noundef i32 @_ZL15find_lowest_bitm(i64 noundef %30)
  store i32 %31, ptr %5, align 4
  %32 = load i32, ptr %5, align 4
  %33 = icmp ne i32 %32, 63
  br i1 %33, label %34, label %50

34:                                               ; preds = %25
  %35 = load i32, ptr %5, align 4
  %36 = zext i32 %35 to i64
  %37 = shl i64 1, %36
  store i64 %37, ptr %6, align 8
  %38 = load i64, ptr %6, align 8
  %39 = load i64, ptr %6, align 8
  %40 = shl i64 %39, 1
  %41 = or i64 %38, %40
  %42 = getelementptr inbounds %class.RegMask, ptr %7, i32 0, i32 0
  %43 = load i32, ptr %4, align 4
  %44 = zext i32 %43 to i64
  %45 = getelementptr inbounds [11 x i64], ptr %42, i64 0, i64 %44
  %46 = load i64, ptr %45, align 8
  %47 = icmp ne i64 %41, %46
  br i1 %47, label %48, label %49

48:                                               ; preds = %34
  store i1 false, ptr %2, align 1
  br label %92

49:                                               ; preds = %34
  br label %66

50:                                               ; preds = %25
  %51 = load i32, ptr %4, align 4
  %52 = add i32 %51, 1
  store i32 %52, ptr %4, align 4
  %53 = load i32, ptr %4, align 4
  %54 = getelementptr inbounds %class.RegMask, ptr %7, i32 0, i32 2
  %55 = load i32, ptr %54, align 4
  %56 = icmp ugt i32 %53, %55
  br i1 %56, label %64, label %57

57:                                               ; preds = %50
  %58 = getelementptr inbounds %class.RegMask, ptr %7, i32 0, i32 0
  %59 = load i32, ptr %4, align 4
  %60 = zext i32 %59 to i64
  %61 = getelementptr inbounds [11 x i64], ptr %58, i64 0, i64 %60
  %62 = load i64, ptr %61, align 8
  %63 = icmp ne i64 %62, 1
  br i1 %63, label %64, label %65

64:                                               ; preds = %57, %50
  store i1 false, ptr %2, align 1
  br label %92

65:                                               ; preds = %57
  br label %66

66:                                               ; preds = %65, %49
  %67 = load i32, ptr %4, align 4
  %68 = add i32 %67, 1
  store i32 %68, ptr %4, align 4
  br label %69

69:                                               ; preds = %83, %66
  %70 = load i32, ptr %4, align 4
  %71 = getelementptr inbounds %class.RegMask, ptr %7, i32 0, i32 2
  %72 = load i32, ptr %71, align 4
  %73 = icmp ule i32 %70, %72
  br i1 %73, label %74, label %86

74:                                               ; preds = %69
  %75 = getelementptr inbounds %class.RegMask, ptr %7, i32 0, i32 0
  %76 = load i32, ptr %4, align 4
  %77 = zext i32 %76 to i64
  %78 = getelementptr inbounds [11 x i64], ptr %75, i64 0, i64 %77
  %79 = load i64, ptr %78, align 8
  %80 = icmp ne i64 %79, 0
  br i1 %80, label %81, label %82

81:                                               ; preds = %74
  store i1 false, ptr %2, align 1
  br label %92

82:                                               ; preds = %74
  br label %83

83:                                               ; preds = %82
  %84 = load i32, ptr %4, align 4
  %85 = add i32 %84, 1
  store i32 %85, ptr %4, align 4
  br label %69, !llvm.loop !15

86:                                               ; preds = %69
  store i1 true, ptr %2, align 1
  br label %92

87:                                               ; preds = %18
  br label %88

88:                                               ; preds = %87
  %89 = load i32, ptr %4, align 4
  %90 = add i32 %89, 1
  store i32 %90, ptr %4, align 4
  br label %13, !llvm.loop !16

91:                                               ; preds = %13
  store i1 true, ptr %2, align 1
  br label %92

92:                                               ; preds = %91, %86, %81, %64, %48, %9
  %93 = load i1, ptr %2, align 1
  ret i1 %93
}