; Function Attrs: mustprogress nofree norecurse nosync nounwind willreturn memory(argmem: read) uwtable
define hidden noundef zeroext i1 @_ZNK7RegMask13is_bound_pairEv(ptr nocapture noundef nonnull readonly align 8 dereferenceable(96) %0) local_unnamed_addr #2 align 2 {
  %2 = getelementptr inbounds i8, ptr %0, i64 80
  %3 = load i64, ptr %2, align 8
  %4 = icmp slt i64 %3, 0
  br i1 %4, label %.loopexit, label %5

5:                                                ; preds = %1
  %6 = getelementptr inbounds i8, ptr %0, i64 88
  %7 = load i32, ptr %6, align 8
  %8 = getelementptr inbounds i8, ptr %0, i64 92
  %9 = load i32, ptr %8, align 4
  %.not31 = icmp ugt i32 %7, %9
  br i1 %.not31, label %.loopexit, label %.lr.ph

.lr.ph:                                           ; preds = %5, %29
  %.01732 = phi i32 [ %30, %29 ], [ %7, %5 ]
  %10 = zext i32 %.01732 to i64
  %11 = getelementptr inbounds [11 x i64], ptr %0, i64 0, i64 %10
  %12 = load i64, ptr %11, align 8
  %.not21 = icmp eq i64 %12, 0
  br i1 %.not21, label %29, label %13

13:                                               ; preds = %.lr.ph
  %14 = tail call range(i64 0, 65) i64 @llvm.cttz.i64(i64 %12, i1 true)
  %.not22 = icmp eq i64 %14, 63
  br i1 %.not22, label %17, label %15

15:                                               ; preds = %13
  %16 = shl nuw i64 3, %14
  %.not24 = icmp eq i64 %16, %12
  br i1 %.not24, label %.preheader, label %.loopexit

17:                                               ; preds = %13
  %18 = add i32 %.01732, 1
  %19 = icmp ugt i32 %18, %9
  br i1 %19, label %.loopexit, label %20

20:                                               ; preds = %17
  %21 = zext i32 %18 to i64
  %22 = getelementptr inbounds [11 x i64], ptr %0, i64 0, i64 %21
  %23 = load i64, ptr %22, align 8
  %.not23 = icmp eq i64 %23, 1
  br i1 %.not23, label %.preheader, label %.loopexit

.preheader:                                       ; preds = %20, %15
  %.2.in.ph = phi i32 [ %18, %20 ], [ %.01732, %15 ]
  br label %24

24:                                               ; preds = %.preheader, %25
  %.2.in = phi i32 [ %.2, %25 ], [ %.2.in.ph, %.preheader ]
  %.2 = add i32 %.2.in, 1
  %.not25 = icmp ugt i32 %.2, %9
  br i1 %.not25, label %.loopexit, label %25

25:                                               ; preds = %24
  %26 = zext i32 %.2 to i64
  %27 = getelementptr inbounds [11 x i64], ptr %0, i64 0, i64 %26
  %28 = load i64, ptr %27, align 8
  %.not26 = icmp eq i64 %28, 0
  br i1 %.not26, label %24, label %.loopexit, !llvm.loop !13

29:                                               ; preds = %.lr.ph
  %30 = add i32 %.01732, 1
  %.not = icmp ugt i32 %30, %9
  br i1 %.not, label %.loopexit, label %.lr.ph, !llvm.loop !14

.loopexit:                                        ; preds = %29, %24, %25, %5, %17, %20, %15, %1
  %.0 = phi i1 [ false, %1 ], [ false, %15 ], [ false, %20 ], [ false, %17 ], [ true, %5 ], [ %.not25, %25 ], [ %.not25, %24 ], [ true, %29 ]
  ret i1 %.0
}